target datalayout = "e-m:e-p270:32:32-p271:32:32-p272:64:64-i64:64-i128:128-f80:128-n8:16:32:64-S128"
target triple = "x86_64-pc-linux-gnu"

%struct.expert_field = type { i32, i32 }
%struct.ext_value_string_t = type { i32, ptr, i32 }

@ansi_a_elem_1_strings = global ptr null, align 8
@.str.282 = private unnamed_addr constant [1 x i8] zeroinitializer, align 1
@ei_ansi_a_extraneous_data = internal global %struct.expert_field zeroinitializer, align 4
@ei_ansi_a_missing_mand_elem = internal global %struct.expert_field zeroinitializer, align 4
@.str.1753 = private unnamed_addr constant [71 x i8] c"Missing Mandatory element (0x%02x) %s%s, rest of dissection is suspect\00", align 1

; Function Attrs: null_pointer_is_valid sspstrong uwtable
define internal void @bsmap_auth_resp(ptr noundef %0, ptr noundef %1, ptr noundef %2, i32 noundef %3, i32 noundef %4, ptr noundef %5) #1 {
  %7 = alloca ptr, align 8
  %8 = alloca ptr, align 8
  %9 = alloca ptr, align 8
  %10 = alloca i32, align 4
  %11 = alloca i32, align 4
  %12 = alloca ptr, align 8
  %13 = alloca i32, align 4
  %14 = alloca i32, align 4
  %15 = alloca i32, align 4
  %16 = alloca i32, align 4
  store ptr %0, ptr %7, align 8
  store ptr %1, ptr %8, align 8
  store ptr %2, ptr %9, align 8
  store i32 %3, ptr %10, align 4
  store i32 %4, ptr %11, align 4
  store ptr %5, ptr %12, align 8
  call void @llvm.lifetime.start.p0(i64 4, ptr %13) #8
  call void @llvm.lifetime.start.p0(i64 4, ptr %14) #8
  call void @llvm.lifetime.start.p0(i64 4, ptr %15) #8
  %17 = load i32, ptr %10, align 4
  store i32 %17, ptr %13, align 4
  %18 = load i32, ptr %11, align 4
  store i32 %18, ptr %15, align 4
  %19 = load ptr, ptr %7, align 8
  %20 = load ptr, ptr %8, align 8
  %21 = load ptr, ptr %9, align 8
  %22 = load i32, ptr %13, align 4
  %23 = load i32, ptr %15, align 4
  %24 = load ptr, ptr %12, align 8
  %25 = call zeroext i16 @elem_tlv(ptr noundef %19, ptr noundef %20, ptr noundef %21, i32 noundef 10, i32 noundef %22, i32 noundef %23, ptr noundef @.str.282, ptr noundef %24)
  %26 = zext i16 %25 to i32
  store i32 %26, ptr %14, align 4
  %27 = icmp ugt i32 %26, 0
  br i1 %27, label %28, label %35

28:                                               ; preds = %6
  %29 = load i32, ptr %14, align 4
  %30 = load i32, ptr %13, align 4
  %31 = add i32 %30, %29
  store i32 %31, ptr %13, align 4
  %32 = load i32, ptr %14, align 4
  %33 = load i32, ptr %15, align 4
  %34 = sub i32 %33, %32
  store i32 %34, ptr %15, align 4
  br label %49

35:                                               ; preds = %6
  %36 = load ptr, ptr %9, align 8
  %37 = load ptr, ptr %8, align 8
  %38 = load ptr, ptr %7, align 8
  %39 = load i32, ptr %13, align 4
  %40 = load ptr, ptr @ansi_a_elem_1_strings, align 8
  %41 = getelementptr %struct.ext_value_string_t, ptr %40, i64 10
  %42 = getelementptr inbounds nuw %struct.ext_value_string_t, ptr %41, i32 0, i32 0
  %43 = load i32, ptr %42, align 8
  %44 = load ptr, ptr @ansi_a_elem_1_strings, align 8
  %45 = getelementptr %struct.ext_value_string_t, ptr %44, i64 10
  %46 = getelementptr inbounds nuw %struct.ext_value_string_t, ptr %45, i32 0, i32 1
  %47 = load ptr, ptr %46, align 8
  %48 = call ptr (ptr, ptr, ptr, ptr, i32, i32, ptr, ...) @proto_tree_add_expert_format(ptr noundef %36, ptr noundef %37, ptr noundef @ei_ansi_a_missing_mand_elem, ptr noundef %38, i32 noundef %39, i32 noundef 0, ptr noundef @.str.1753, i32 noundef %43, ptr noundef %47, ptr noundef @.str.282)
  br label %49

49:                                               ; preds = %35, %28
  %50 = load i32, ptr %15, align 4
  %51 = icmp ule i32 %50, 0
  br i1 %51, label %52, label %53

52:                                               ; preds = %49
  store i32 1, ptr %16, align 4
  br label %180

53:                                               ; preds = %49
  %54 = load ptr, ptr %7, align 8
  %55 = load ptr, ptr %8, align 8
  %56 = load ptr, ptr %9, align 8
  %57 = load i32, ptr %13, align 4
  %58 = load i32, ptr %15, align 4
  %59 = load ptr, ptr %12, align 8
  %60 = call zeroext i16 @elem_tlv(ptr noundef %54, ptr noundef %55, ptr noundef %56, i32 noundef 47, i32 noundef %57, i32 noundef %58, ptr noundef @.str.282, ptr noundef %59)
  %61 = zext i16 %60 to i32
  store i32 %61, ptr %14, align 4
  %62 = icmp ugt i32 %61, 0
  br i1 %62, label %63, label %70

63:                                               ; preds = %53
  %64 = load i32, ptr %14, align 4
  %65 = load i32, ptr %13, align 4
  %66 = add i32 %65, %64
  store i32 %66, ptr %13, align 4
  %67 = load i32, ptr %14, align 4
  %68 = load i32, ptr %15, align 4
  %69 = sub i32 %68, %67
  store i32 %69, ptr %15, align 4
  br label %84

70:                                               ; preds = %53
  %71 = load ptr, ptr %9, align 8
  %72 = load ptr, ptr %8, align 8
  %73 = load ptr, ptr %7, align 8
  %74 = load i32, ptr %13, align 4
  %75 = load ptr, ptr @ansi_a_elem_1_strings, align 8
  %76 = getelementptr %struct.ext_value_string_t, ptr %75, i64 47
  %77 = getelementptr inbounds nuw %struct.ext_value_string_t, ptr %76, i32 0, i32 0
  %78 = load i32, ptr %77, align 8
  %79 = load ptr, ptr @ansi_a_elem_1_strings, align 8
  %80 = getelementptr %struct.ext_value_string_t, ptr %79, i64 47
  %81 = getelementptr inbounds nuw %struct.ext_value_string_t, ptr %80, i32 0, i32 1
  %82 = load ptr, ptr %81, align 8
  %83 = call ptr (ptr, ptr, ptr, ptr, i32, i32, ptr, ...) @proto_tree_add_expert_format(ptr noundef %71, ptr noundef %72, ptr noundef @ei_ansi_a_missing_mand_elem, ptr noundef %73, i32 noundef %74, i32 noundef 0, ptr noundef @.str.1753, i32 noundef %78, ptr noundef %82, ptr noundef @.str.282)
  br label %84

84:                                               ; preds = %70, %63
  %85 = load i32, ptr %15, align 4
  %86 = icmp ule i32 %85, 0
  br i1 %86, label %87, label %88

87:                                               ; preds = %84
  store i32 1, ptr %16, align 4
  br label %180

88:                                               ; preds = %84
  %89 = load ptr, ptr %7, align 8
  %90 = load ptr, ptr %8, align 8
  %91 = load ptr, ptr %9, align 8
  %92 = load i32, ptr %13, align 4
  %93 = load ptr, ptr %12, align 8
  %94 = call zeroext i16 @elem_tv(ptr noundef %89, ptr noundef %90, ptr noundef %91, i32 noundef 78, i32 noundef %92, ptr noundef @.str.282, ptr noundef %93)
  %95 = zext i16 %94 to i32
  store i32 %95, ptr %14, align 4
  %96 = icmp ugt i32 %95, 0
  br i1 %96, label %97, label %104

97:                                               ; preds = %88
  %98 = load i32, ptr %14, align 4
  %99 = load i32, ptr %13, align 4
  %100 = add i32 %99, %98
  store i32 %100, ptr %13, align 4
  %101 = load i32, ptr %14, align 4
  %102 = load i32, ptr %15, align 4
  %103 = sub i32 %102, %101
  store i32 %103, ptr %15, align 4
  br label %118

104:                                              ; preds = %88
  %105 = load ptr, ptr %9, align 8
  %106 = load ptr, ptr %8, align 8
  %107 = load ptr, ptr %7, align 8
  %108 = load i32, ptr %13, align 4
  %109 = load ptr, ptr @ansi_a_elem_1_strings, align 8
  %110 = getelementptr %struct.ext_value_string_t, ptr %109, i64 78
  %111 = getelementptr inbounds nuw %struct.ext_value_string_t, ptr %110, i32 0, i32 0
  %112 = load i32, ptr %111, align 8
  %113 = load ptr, ptr @ansi_a_elem_1_strings, align 8
  %114 = getelementptr %struct.ext_value_string_t, ptr %113, i64 78
  %115 = getelementptr inbounds nuw %struct.ext_value_string_t, ptr %114, i32 0, i32 1
  %116 = load ptr, ptr %115, align 8
  %117 = call ptr (ptr, ptr, ptr, ptr, i32, i32, ptr, ...) @proto_tree_add_expert_format(ptr noundef %105, ptr noundef %106, ptr noundef @ei_ansi_a_missing_mand_elem, ptr noundef %107, i32 noundef %108, i32 noundef 0, ptr noundef @.str.1753, i32 noundef %112, ptr noundef %116, ptr noundef @.str.282)
  br label %118

118:                                              ; preds = %104, %97
  %119 = load i32, ptr %15, align 4
  %120 = icmp ule i32 %119, 0
  br i1 %120, label %121, label %122

121:                                              ; preds = %118
  store i32 1, ptr %16, align 4
  br label %180

122:                                              ; preds = %118
  %123 = load ptr, ptr %7, align 8
  %124 = load ptr, ptr %8, align 8
  %125 = load ptr, ptr %9, align 8
  %126 = load i32, ptr %13, align 4
  %127 = load i32, ptr %15, align 4
  %128 = load ptr, ptr %12, align 8
  %129 = call zeroext i16 @elem_tlv(ptr noundef %123, ptr noundef %124, ptr noundef %125, i32 noundef 47, i32 noundef %126, i32 noundef %127, ptr noundef @.str.282, ptr noundef %128)
  %130 = zext i16 %129 to i32
  store i32 %130, ptr %14, align 4
  %131 = icmp ugt i32 %130, 0
  br i1 %131, label %132, label %139

132:                                              ; preds = %122
  %133 = load i32, ptr %14, align 4
  %134 = load i32, ptr %13, align 4
  %135 = add i32 %134, %133
  store i32 %135, ptr %13, align 4
  %136 = load i32, ptr %14, align 4
  %137 = load i32, ptr %15, align 4
  %138 = sub i32 %137, %136
  store i32 %138, ptr %15, align 4
  br label %139

139:                                              ; preds = %132, %122
  %140 = load i32, ptr %15, align 4
  %141 = icmp ule i32 %140, 0
  br i1 %141, label %142, label %143

142:                                              ; preds = %139
  store i32 1, ptr %16, align 4
  br label %180

143:                                              ; preds = %139
  %144 = load ptr, ptr %7, align 8
  %145 = load ptr, ptr %8, align 8
  %146 = load ptr, ptr %9, align 8
  %147 = load i32, ptr %13, align 4
  %148 = load i32, ptr %15, align 4
  %149 = load ptr, ptr %12, align 8
  %150 = call zeroext i16 @elem_tlv(ptr noundef %144, ptr noundef %145, ptr noundef %146, i32 noundef 47, i32 noundef %147, i32 noundef %148, ptr noundef @.str.282, ptr noundef %149)
  %151 = zext i16 %150 to i32
  store i32 %151, ptr %14, align 4
  %152 = icmp ugt i32 %151, 0
  br i1 %152, label %153, label %160

153:                                              ; preds = %143
  %154 = load i32, ptr %14, align 4
  %155 = load i32, ptr %13, align 4
  %156 = add i32 %155, %154
  store i32 %156, ptr %13, align 4
  %157 = load i32, ptr %14, align 4
  %158 = load i32, ptr %15, align 4
  %159 = sub i32 %158, %157
  store i32 %159, ptr %15, align 4
  br label %160

160:                                              ; preds = %153, %143
  %161 = load i32, ptr %15, align 4
  %162 = icmp ule i32 %161, 0
  br i1 %162, label %163, label %164

163:                                              ; preds = %160
  store i32 1, ptr %16, align 4
  br label %180

164:                                              ; preds = %160
  %165 = load i32, ptr %15, align 4
  %166 = icmp ugt i32 %165, 0
  br i1 %166, label %167, label %179

167:                                              ; preds = %164
  %168 = load ptr, ptr %9, align 8
  %169 = load ptr, ptr %8, align 8
  %170 = load ptr, ptr %7, align 8
  %171 = load i32, ptr %13, align 4
  %172 = load i32, ptr %15, align 4
  %173 = sub i32 %172, 0
  %174 = call ptr @proto_tree_add_expert(ptr noundef %168, ptr noundef %169, ptr noundef @ei_ansi_a_extraneous_data, ptr noundef %170, i32 noundef %171, i32 noundef %173)
  %175 = load i32, ptr %15, align 4
  %176 = sub i32 %175, 0
  %177 = load i32, ptr %13, align 4
  %178 = add i32 %177, %176
  store i32 %178, ptr %13, align 4
  br label %179

179:                                              ; preds = %167, %164
  store i32 0, ptr %16, align 4
  br label %180

180:                                              ; preds = %179, %163, %142, %121, %87, %52
  call void @llvm.lifetime.end.p0(i64 4, ptr %15) #8
  call void @llvm.lifetime.end.p0(i64 4, ptr %14) #8
  call void @llvm.lifetime.end.p0(i64 4, ptr %13) #8
  %181 = load i32, ptr %16, align 4
  switch i32 %181, label %183 [
    i32 0, label %182
    i32 1, label %182
  ]

182:                                              ; preds = %180, %180
  ret void

183:                                              ; preds = %180
  unreachable
}