; Function Attrs: null_pointer_is_valid sspstrong uwtable
define internal void @bsmap_auth_resp(ptr noundef %0, ptr noundef %1, ptr noundef %2, i32 noundef %3, i32 noundef %4, ptr noundef %5) #1 {
  %7 = tail call fastcc zeroext i16 @elem_tlv(ptr noundef %0, ptr noundef %1, ptr noundef %2, i32 noundef 10, i32 noundef %3, ptr noundef nonnull @.str.282, ptr noundef %5)
  %.not = icmp eq i16 %7, 0
  br i1 %.not, label %12, label %8

8:                                                ; preds = %6
  %9 = zext i16 %7 to i32
  %10 = add i32 %3, %9
  %11 = sub i32 %4, %9
  br label %19

12:                                               ; preds = %6
  %13 = load ptr, ptr @ansi_a_elem_1_strings, align 8
  %14 = getelementptr i8, ptr %13, i64 240
  %15 = load i32, ptr %14, align 8
  %16 = getelementptr i8, ptr %13, i64 248
  %17 = load ptr, ptr %16, align 8
  %18 = tail call ptr (ptr, ptr, ptr, ptr, i32, i32, ptr, ...) @proto_tree_add_expert_format(ptr noundef %2, ptr noundef %1, ptr noundef nonnull @ei_ansi_a_missing_mand_elem, ptr noundef %0, i32 noundef %3, i32 noundef 0, ptr noundef nonnull @.str.1753, i32 noundef %15, ptr noundef %17, ptr noundef nonnull @.str.282)
  br label %19

19:                                               ; preds = %12, %8
  %.075 = phi i32 [ %10, %8 ], [ %3, %12 ]
  %.0 = phi i32 [ %11, %8 ], [ %4, %12 ]
  %20 = icmp eq i32 %.0, 0
  br i1 %20, label %61, label %21

21:                                               ; preds = %19
  %22 = tail call fastcc zeroext i16 @elem_tlv(ptr noundef %0, ptr noundef %1, ptr noundef %2, i32 noundef 47, i32 noundef %.075, ptr noundef nonnull @.str.282, ptr noundef %5)
  %.not85 = icmp eq i16 %22, 0
  br i1 %.not85, label %.thread, label %29

.thread:                                          ; preds = %21
  %23 = load ptr, ptr @ansi_a_elem_1_strings, align 8
  %24 = getelementptr i8, ptr %23, i64 1128
  %25 = load i32, ptr %24, align 8
  %26 = getelementptr i8, ptr %23, i64 1136
  %27 = load ptr, ptr %26, align 8
  %28 = tail call ptr (ptr, ptr, ptr, ptr, i32, i32, ptr, ...) @proto_tree_add_expert_format(ptr noundef %2, ptr noundef %1, ptr noundef nonnull @ei_ansi_a_missing_mand_elem, ptr noundef %0, i32 noundef %.075, i32 noundef 0, ptr noundef nonnull @.str.1753, i32 noundef %25, ptr noundef %27, ptr noundef nonnull @.str.282)
  br label %34

29:                                               ; preds = %21
  %30 = zext i16 %22 to i32
  %31 = add i32 %.075, %30
  %32 = sub i32 %.0, %30
  %33 = icmp eq i32 %32, 0
  br i1 %33, label %61, label %34

34:                                               ; preds = %.thread, %29
  %.192 = phi i32 [ %.0, %.thread ], [ %32, %29 ]
  %.17691 = phi i32 [ %.075, %.thread ], [ %31, %29 ]
  %35 = tail call fastcc zeroext i16 @elem_tv(ptr noundef %0, ptr noundef %1, ptr noundef %2, i32 noundef 78, i32 noundef %.17691, ptr noundef %5)
  %.not86 = icmp eq i16 %35, 0
  br i1 %.not86, label %.thread93, label %42

.thread93:                                        ; preds = %34
  %36 = load ptr, ptr @ansi_a_elem_1_strings, align 8
  %37 = getelementptr i8, ptr %36, i64 1872
  %38 = load i32, ptr %37, align 8
  %39 = getelementptr i8, ptr %36, i64 1880
  %40 = load ptr, ptr %39, align 8
  %41 = tail call ptr (ptr, ptr, ptr, ptr, i32, i32, ptr, ...) @proto_tree_add_expert_format(ptr noundef %2, ptr noundef %1, ptr noundef nonnull @ei_ansi_a_missing_mand_elem, ptr noundef %0, i32 noundef %.17691, i32 noundef 0, ptr noundef nonnull @.str.1753, i32 noundef %38, ptr noundef %40, ptr noundef nonnull @.str.282)
  br label %47

42:                                               ; preds = %34
  %43 = zext i16 %35 to i32
  %44 = add i32 %.17691, %43
  %45 = sub i32 %.192, %43
  %46 = icmp eq i32 %45, 0
  br i1 %46, label %61, label %47

47:                                               ; preds = %.thread93, %42
  %.297 = phi i32 [ %.192, %.thread93 ], [ %45, %42 ]
  %.27796 = phi i32 [ %.17691, %.thread93 ], [ %44, %42 ]
  %48 = tail call fastcc zeroext i16 @elem_tlv(ptr noundef %0, ptr noundef %1, ptr noundef %2, i32 noundef 47, i32 noundef %.27796, ptr noundef nonnull @.str.282, ptr noundef %5)
  %49 = zext i16 %48 to i32
  %50 = icmp eq i32 %.297, %49
  br i1 %50, label %61, label %51

51:                                               ; preds = %47
  %52 = sub i32 %.297, %49
  %53 = add i32 %.27796, %49
  %54 = tail call fastcc zeroext i16 @elem_tlv(ptr noundef %0, ptr noundef %1, ptr noundef %2, i32 noundef 47, i32 noundef %53, ptr noundef nonnull @.str.282, ptr noundef %5)
  %55 = zext i16 %54 to i32
  %56 = icmp eq i32 %52, %55
  br i1 %56, label %61, label %57

57:                                               ; preds = %51
  %58 = sub i32 %52, %55
  %59 = add i32 %53, %55
  %60 = tail call ptr @proto_tree_add_expert(ptr noundef %2, ptr noundef %1, ptr noundef nonnull @ei_ansi_a_extraneous_data, ptr noundef %0, i32 noundef %59, i32 noundef %58)
  br label %61

61:                                               ; preds = %51, %47, %42, %29, %19, %57
  ret void
}